target datalayout = "e-m:e-p270:32:32-p271:32:32-p272:64:64-i64:64-i128:128-f80:128-n8:16:32:64-S128"
target triple = "x86_64-pc-linux-gnu"

@stderr = external global ptr, align 8
@.str.3 = private unnamed_addr constant [2 x i8] c"\0A\00", align 1
@.str.48 = private unnamed_addr constant [88 x i8] c"ex.set_num_threads() is no-op, please set net.opt.num_threads=N before net.load_param()\00", align 1
@.str.49 = private unnamed_addr constant [111 x i8] c"If you want to use single thread for only some layer, see https://github.com/Tencent/ncnn/wiki/layer-feat-mask\00", align 1

; Function Attrs: mustprogress nounwind uwtable
define hidden void @_ZN4ncnn9Extractor15set_num_threadsEi(ptr noundef nonnull align 8 dereferenceable(16) %0, i32 noundef %1) #0 align 2 {
  %3 = alloca ptr, align 8
  %4 = alloca i32, align 4
  store ptr %0, ptr %3, align 8, !tbaa !51
  store i32 %1, ptr %4, align 4, !tbaa !26
  br label %5

5:                                                ; preds = %2
  %6 = load ptr, ptr @stderr, align 8, !tbaa !264
  %7 = call i32 (ptr, ptr, ...) @fprintf(ptr noundef %6, ptr noundef @.str.48) #16
  %8 = load ptr, ptr @stderr, align 8, !tbaa !264
  %9 = call i32 (ptr, ptr, ...) @fprintf(ptr noundef %8, ptr noundef @.str.3) #16
  br label %10

10:                                               ; preds = %5
  br label %11

11:                                               ; preds = %10
  %12 = load ptr, ptr @stderr, align 8, !tbaa !264
  %13 = call i32 (ptr, ptr, ...) @fprintf(ptr noundef %12, ptr noundef @.str.49) #16
  %14 = load ptr, ptr @stderr, align 8, !tbaa !264
  %15 = call i32 (ptr, ptr, ...) @fprintf(ptr noundef %14, ptr noundef @.str.3) #16
  br label %16

16:                                               ; preds = %11
  ret void
}