; Function Attrs: cold mustprogress nofree nounwind uwtable
define hidden void @_ZN4ncnn9Extractor15set_num_threadsEi(ptr noundef nonnull readnone align 8 captures(none) dereferenceable(16) %0, i32 noundef %1) local_unnamed_addr #21 align 2 {
  %3 = load ptr, ptr @stderr, align 8, !tbaa !157
  %4 = tail call i64 @fwrite(ptr nonnull @.str.48, i64 87, i64 1, ptr %3) #32
  %5 = load ptr, ptr @stderr, align 8, !tbaa !157
  %fputc = tail call i32 @fputc(i32 10, ptr %5)
  %6 = load ptr, ptr @stderr, align 8, !tbaa !157
  %7 = tail call i64 @fwrite(ptr nonnull @.str.49, i64 110, i64 1, ptr %6) #32
  %8 = load ptr, ptr @stderr, align 8, !tbaa !157
  %fputc1 = tail call i32 @fputc(i32 10, ptr %8)
  ret void
}